; Function Attrs: nounwind uwtable
define dso_local void @Curl_doh_close(ptr noundef readonly captures(none) %0) local_unnamed_addr #0 {
  %2 = alloca ptr, align 8
  %3 = getelementptr inbounds nuw i8, ptr %0, i64 440
  %4 = load ptr, ptr %3, align 8, !tbaa !79
  %.not = icmp eq ptr %4, null
  br i1 %.not, label %25, label %5

5:                                                ; preds = %1
  %6 = getelementptr inbounds nuw i8, ptr %0, i64 208
  %7 = load ptr, ptr %6, align 8, !tbaa !87
  %.not17 = icmp eq ptr %7, null
  br i1 %.not17, label %25, label %8

8:                                                ; preds = %5
  call void @llvm.lifetime.start.p0(i64 8, ptr nonnull %2) #8
  %9 = getelementptr inbounds nuw i8, ptr %4, i64 8
  br label %10

10:                                               ; preds = %8, %23
  %11 = phi i1 [ true, %8 ], [ false, %23 ]
  %.021 = phi i64 [ 0, %8 ], [ 1, %23 ]
  %12 = getelementptr inbounds nuw [2 x %struct.doh_probe], ptr %9, i64 0, i64 %.021
  %13 = load i64, ptr %12, align 8, !tbaa !80
  %14 = icmp slt i64 %13, 0
  br i1 %14, label %23, label %15

15:                                               ; preds = %10
  store i64 -1, ptr %12, align 8, !tbaa !80
  %16 = load ptr, ptr %6, align 8, !tbaa !87
  %.not18 = icmp eq ptr %16, null
  br i1 %.not18, label %.thread, label %17

.thread:                                          ; preds = %15
  store ptr null, ptr %2, align 8, !tbaa !98
  br label %23

17:                                               ; preds = %15
  %18 = call ptr @Curl_multi_get_handle(ptr noundef nonnull %16, i64 noundef %13) #8
  store ptr %18, ptr %2, align 8, !tbaa !98
  %.not19 = icmp eq ptr %18, null
  br i1 %.not19, label %23, label %19

19:                                               ; preds = %17
  %20 = load ptr, ptr %6, align 8, !tbaa !87
  %21 = call i32 @curl_multi_remove_handle(ptr noundef %20, ptr noundef nonnull %18) #8
  %22 = call i32 @Curl_close(ptr noundef nonnull %2) #8
  br label %23

23:                                               ; preds = %.thread, %17, %10, %19
  br i1 %11, label %10, label %24, !llvm.loop !118

24:                                               ; preds = %23
  call void @llvm.lifetime.end.p0(i64 8, ptr nonnull %2) #8
  br label %25

25:                                               ; preds = %24, %5, %1
  ret void
}